; Function Attrs: null_pointer_is_valid sspstrong uwtable
define internal range(i32 0, 2) i32 @enip_conn_equal(ptr noundef %0, ptr noundef %1) #0 {
  %3 = tail call zeroext i1 @cip_connection_triad_match(ptr noundef %0, ptr noundef %1)
  br i1 %3, label %4, label %22

4:                                                ; preds = %2
  %5 = getelementptr inbounds nuw i8, ptr %0, i64 8
  %6 = load i32, ptr %5, align 4
  %7 = icmp eq i32 %6, 0
  br i1 %7, label %13, label %8

8:                                                ; preds = %4
  %9 = getelementptr inbounds nuw i8, ptr %1, i64 8
  %10 = load i32, ptr %9, align 4
  %11 = icmp eq i32 %10, 0
  %12 = icmp eq i32 %6, %10
  %or.cond = or i1 %11, %12
  br i1 %or.cond, label %13, label %22

13:                                               ; preds = %8, %4
  %14 = getelementptr inbounds nuw i8, ptr %0, i64 12
  %15 = load i32, ptr %14, align 4
  %16 = icmp eq i32 %15, 0
  br i1 %16, label %23, label %17

17:                                               ; preds = %13
  %18 = getelementptr inbounds nuw i8, ptr %1, i64 12
  %19 = load i32, ptr %18, align 4
  %20 = icmp eq i32 %19, 0
  %21 = icmp eq i32 %15, %19
  %or.cond16 = or i1 %20, %21
  br i1 %or.cond16, label %23, label %22

22:                                               ; preds = %17, %8, %2
  br label %23

23:                                               ; preds = %13, %17, %22
  %.0 = phi i32 [ 0, %22 ], [ 1, %17 ], [ 1, %13 ]
  ret i32 %.0
}